(ideluge.core.torrentmanager
TorrentManagerState
p1
(dp2
S'torrents'
p3
(lp4
(ideluge.core.torrentmanager
TorrentState
p5
(dp6
S'max_download_speed'
p7
F-1
sS'move_completed_path'
p8
S'/home/holzel/Downloads'
p9
sS'paused'
p10
I01
sS'max_upload_slots'
p11
I-1
sS'prioritize_first_last'
p12
I00
sS'max_connections'
p13
I-1
sS'compact'
p14
I00
sS'queue'
p15
I-1
sS'file_priorities'
p16
(lp17
I4
aI4
aI4
aI4
aI4
aI4
aI4
aI4
aI4
aI4
asS'filename'
p18
S'10255b52d6e7041d75770f091a69f7f4ecc90393'
p19
sS'max_upload_speed'
p20
F-1
sS'save_path'
p21
S'/home/holzel/Downloads'
p22
sS'time_added'
p23
F1506894926.5090499
sS'total_uploaded'
p24
I121155537
sS'torrent_id'
p25
S'10255b52d6e7041d75770f091a69f7f4ecc90393'
p26
sS'auto_managed'
p27
I01
sS'stop_at_ratio'
p28
I00
sS'move_completed'
p29
I00
sS'trackers'
p30
(lp31
(dp32
S'send_stats'
p33
I01
sS'fails'
p34
I0
sS'verified'
p35
I00
sS'scrape_incomplete'
p36
I-1
sS'min_announce'
p37
NsS'scrape_downloaded'
p38
I-1
sS'url'
p39
S'udp://tracker.leechers-paradise.org:6969'
p40
sS'last_error'
p41
(dp42
S'category'
p43
S'system'
p44
sS'value'
p45
I0
ssS'fail_limit'
p46
I0
sS'next_announce'
p47
NsS'complete_sent'
p48
I00
sS'source'
p49
I4
sS'trackerid'
p50
S''
sS'start_sent'
p51
I00
sS'tier'
p52
I0
sS'scrape_complete'
p53
I-1
sS'message'
p54
S''
sS'updating'
p55
I00
sa(dp56
S'send_stats'
p57
I01
sS'fails'
p58
I0
sS'verified'
p59
I00
sS'scrape_incomplete'
p60
I-1
sS'min_announce'
p61
NsS'scrape_downloaded'
p62
I-1
sS'url'
p63
S'udp://zer0day.ch:1337'
p64
sS'last_error'
p65
(dp66
S'category'
p67
S'system'
p68
sS'value'
p69
I0
ssS'fail_limit'
p70
I0
sS'next_announce'
p71
NsS'complete_sent'
p72
I00
sS'source'
p73
I4
sS'trackerid'
p74
S''
sS'start_sent'
p75
I00
sS'tier'
p76
I1
sS'scrape_complete'
p77
I-1
sS'message'
p78
S''
sS'updating'
p79
I00
sa(dp80
S'send_stats'
p81
I01
sS'fails'
p82
I0
sS'verified'
p83
I00
sS'scrape_incomplete'
p84
I-1
sS'min_announce'
p85
NsS'scrape_downloaded'
p86
I-1
sS'url'
p87
S'udp://open.demonii.com:1337'
p88
sS'last_error'
p89
(dp90
S'category'
p91
S'system'
p92
sS'value'
p93
I0
ssS'fail_limit'
p94
I0
sS'next_announce'
p95
NsS'complete_sent'
p96
I00
sS'source'
p97
I4
sS'trackerid'
p98
S''
sS'start_sent'
p99
I00
sS'tier'
p100
I2
sS'scrape_complete'
p101
I-1
sS'message'
p102
S''
sS'updating'
p103
I00
sa(dp104
S'send_stats'
p105
I01
sS'fails'
p106
I0
sS'verified'
p107
I00
sS'scrape_incomplete'
p108
I-1
sS'min_announce'
p109
NsS'scrape_downloaded'
p110
I-1
sS'url'
p111
S'udp://tracker.coppersurfer.tk:6969'
p112
sS'last_error'
p113
(dp114
S'category'
p115
S'system'
p116
sS'value'
p117
I0
ssS'fail_limit'
p118
I0
sS'next_announce'
p119
NsS'complete_sent'
p120
I00
sS'source'
p121
I4
sS'trackerid'
p122
S''
sS'start_sent'
p123
I00
sS'tier'
p124
I3
sS'scrape_complete'
p125
I-1
sS'message'
p126
S''
sS'updating'
p127
I00
sa(dp128
S'send_stats'
p129
I01
sS'fails'
p130
I0
sS'verified'
p131
I00
sS'scrape_incomplete'
p132
I-1
sS'min_announce'
p133
NsS'scrape_downloaded'
p134
I-1
sS'url'
p135
S'udp://exodus.desync.com:6969'
p136
sS'last_error'
p137
(dp138
S'category'
p139
S'system'
p140
sS'value'
p141
I0
ssS'fail_limit'
p142
I0
sS'next_announce'
p143
NsS'complete_sent'
p144
I00
sS'source'
p145
I4
sS'trackerid'
p146
S''
sS'start_sent'
p147
I00
sS'tier'
p148
I4
sS'scrape_complete'
p149
I-1
sS'message'
p150
S''
sS'updating'
p151
I00
sasS'magnet'
p152
NsS'remove_at_ratio'
p153
I00
sS'stop_ratio'
p154
F2
sS'is_finished'
p155
I01
sba(ideluge.core.torrentmanager
TorrentState
p156
(dp157
g7
F-1
sg8
S'/home/holzel/Downloads'
p158
sg10
I00
sg11
I-1
sg12
I00
sg13
I-1
sg14
I00
sg15
I0
sg16
(lp159
I4
aI4
aI4
aI4
aI4
aI4
aI4
aI4
aI4
aI4
aI4
aI4
aI4
aI4
asg18
S'accd778e8ef86005a9b3e8b9407675862e306a90'
p160
sg20
F-1
sg21
S'/home/holzel/Downloads'
p161
sg23
F1506976566.2051129
sg24
I46969838
sg25
g160
sg27
I01
sg28
I00
sg29
I00
sg30
(lp162
(dp163
S'send_stats'
p164
I01
sS'fails'
p165
I0
sS'verified'
p166
I00
sS'scrape_incomplete'
p167
I-1
sS'min_announce'
p168
NsS'source'
p169
I4
sS'url'
p170
S'udp://tracker.leechers-paradise.org:6969'
p171
sS'last_error'
p172
(dp173
S'category'
p174
S'system'
p175
sS'value'
p176
I0
ssS'fail_limit'
p177
I0
sS'next_announce'
p178
NsS'complete_sent'
p179
I00
sS'scrape_downloaded'
p180
I-1
sS'trackerid'
p181
S''
sS'start_sent'
p182
I00
sS'tier'
p183
I0
sS'scrape_complete'
p184
I-1
sS'message'
p185
S''
sS'updating'
p186
I00
sa(dp187
S'send_stats'
p188
I01
sS'fails'
p189
I0
sS'verified'
p190
I00
sS'scrape_incomplete'
p191
I-1
sS'min_announce'
p192
NsS'source'
p193
I4
sS'url'
p194
S'udp://zer0day.ch:1337'
p195
sS'last_error'
p196
(dp197
S'category'
p198
S'system'
p199
sS'value'
p200
I0
ssS'fail_limit'
p201
I0
sS'next_announce'
p202
NsS'complete_sent'
p203
I00
sS'scrape_downloaded'
p204
I-1
sS'trackerid'
p205
S''
sS'start_sent'
p206
I00
sS'tier'
p207
I1
sS'scrape_complete'
p208
I-1
sS'message'
p209
S''
sS'updating'
p210
I00
sa(dp211
S'send_stats'
p212
I01
sS'fails'
p213
I0
sS'verified'
p214
I00
sS'scrape_incomplete'
p215
I-1
sS'min_announce'
p216
NsS'source'
p217
I4
sS'url'
p218
S'udp://open.demonii.com:1337'
p219
sS'last_error'
p220
(dp221
S'category'
p222
S'system'
p223
sS'value'
p224
I0
ssS'fail_limit'
p225
I0
sS'next_announce'
p226
NsS'complete_sent'
p227
I00
sS'scrape_downloaded'
p228
I-1
sS'trackerid'
p229
S''
sS'start_sent'
p230
I00
sS'tier'
p231
I2
sS'scrape_complete'
p232
I-1
sS'message'
p233
S''
sS'updating'
p234
I00
sa(dp235
S'send_stats'
p236
I01
sS'fails'
p237
I0
sS'verified'
p238
I00
sS'scrape_incomplete'
p239
I-1
sS'min_announce'
p240
NsS'source'
p241
I4
sS'url'
p242
S'udp://tracker.coppersurfer.tk:6969'
p243
sS'last_error'
p244
(dp245
S'category'
p246
S'system'
p247
sS'value'
p248
I0
ssS'fail_limit'
p249
I0
sS'next_announce'
p250
NsS'complete_sent'
p251
I00
sS'scrape_downloaded'
p252
I-1
sS'trackerid'
p253
S''
sS'start_sent'
p254
I00
sS'tier'
p255
I3
sS'scrape_complete'
p256
I-1
sS'message'
p257
S''
sS'updating'
p258
I00
sa(dp259
S'send_stats'
p260
I01
sS'fails'
p261
I0
sS'verified'
p262
I00
sS'scrape_incomplete'
p263
I-1
sS'min_announce'
p264
NsS'source'
p265
I4
sS'url'
p266
S'udp://exodus.desync.com:6969'
p267
sS'last_error'
p268
(dp269
S'category'
p270
S'system'
p271
sS'value'
p272
I0
ssS'fail_limit'
p273
I0
sS'next_announce'
p274
NsS'complete_sent'
p275
I00
sS'scrape_downloaded'
p276
I-1
sS'trackerid'
p277
S''
sS'start_sent'
p278
I00
sS'tier'
p279
I4
sS'scrape_complete'
p280
I-1
sS'message'
p281
S''
sS'updating'
p282
I00
sasg152
S'magnet:?xt=urn:btih:accd778e8ef86005a9b3e8b9407675862e306a90&dn=Mr+Robot+Season+2+Complete+720p+WEB-DL+EN-SUB+x264-%5BMULVAcoded%5D+&tr=udp%3A%2F%2Ftracker.leechers-paradise.org%3A6969&tr=udp%3A%2F%2Fzer0day.ch%3A1337&tr=udp%3A%2F%2Fopen.demonii.com%3A1337&tr=udp%3A%2F%2Ftracker.coppersurfer.tk%3A6969&tr=udp%3A%2F%2Fexodus.desync.com%3A6969'
p283
sg153
I00
sg154
F2
sg155
I00
sba(ideluge.core.torrentmanager
TorrentState
p284
(dp285
g7
F-1
sg8
S'/home/holzel/Downloads'
p286
sg10
I01
sg11
I-1
sg12
I00
sg13
I-1
sg14
I00
sg15
I-1
sg16
(lp287
I4
aI4
aI4
aI4
aI4
aI4
aI4
aI4
aI4
aI4
aI4
aI4
aI4
aI4
asg18
S'8b14d5f841090640866360a9de3f6dc619ddb0ba'
p288
sg20
F-1
sg21
S'/home/holzel/Downloads'
p289
sg23
F1505590185.5401731
sg24
I258547904
sg25
S'8b14d5f841090640866360a9de3f6dc619ddb0ba'
p290
sg27
I01
sg28
I00
sg29
I00
sg30
(lp291
(dp292
S'send_stats'
p293
I01
sS'fails'
p294
I0
sS'verified'
p295
I00
sS'scrape_incomplete'
p296
I-1
sS'min_announce'
p297
NsS'source'
p298
I4
sS'url'
p299
S'udp://tracker.leechers-paradise.org:6969'
p300
sS'last_error'
p301
(dp302
S'category'
p303
S'system'
p304
sS'value'
p305
I0
ssS'fail_limit'
p306
I0
sS'next_announce'
p307
NsS'complete_sent'
p308
I00
sS'scrape_downloaded'
p309
I-1
sS'trackerid'
p310
S''
sS'start_sent'
p311
I00
sS'tier'
p312
I0
sS'scrape_complete'
p313
I-1
sS'message'
p314
S''
sS'updating'
p315
I00
sa(dp316
S'send_stats'
p317
I01
sS'fails'
p318
I0
sS'verified'
p319
I00
sS'scrape_incomplete'
p320
I-1
sS'min_announce'
p321
NsS'source'
p322
I4
sS'url'
p323
S'udp://zer0day.ch:1337'
p324
sS'last_error'
p325
(dp326
S'category'
p327
S'system'
p328
sS'value'
p329
I0
ssS'fail_limit'
p330
I0
sS'next_announce'
p331
NsS'complete_sent'
p332
I00
sS'scrape_downloaded'
p333
I-1
sS'trackerid'
p334
S''
sS'start_sent'
p335
I00
sS'tier'
p336
I1
sS'scrape_complete'
p337
I-1
sS'message'
p338
S''
sS'updating'
p339
I00
sa(dp340
S'send_stats'
p341
I01
sS'fails'
p342
I0
sS'verified'
p343
I00
sS'scrape_incomplete'
p344
I-1
sS'min_announce'
p345
NsS'source'
p346
I4
sS'url'
p347
S'udp://open.demonii.com:1337'
p348
sS'last_error'
p349
(dp350
S'category'
p351
S'system'
p352
sS'value'
p353
I0
ssS'fail_limit'
p354
I0
sS'next_announce'
p355
NsS'complete_sent'
p356
I00
sS'scrape_downloaded'
p357
I-1
sS'trackerid'
p358
S''
sS'start_sent'
p359
I00
sS'tier'
p360
I2
sS'scrape_complete'
p361
I-1
sS'message'
p362
S''
sS'updating'
p363
I00
sa(dp364
S'send_stats'
p365
I01
sS'fails'
p366
I0
sS'verified'
p367
I00
sS'scrape_incomplete'
p368
I-1
sS'min_announce'
p369
NsS'source'
p370
I4
sS'url'
p371
S'udp://tracker.coppersurfer.tk:6969'
p372
sS'last_error'
p373
(dp374
S'category'
p375
S'system'
p376
sS'value'
p377
I0
ssS'fail_limit'
p378
I0
sS'next_announce'
p379
NsS'complete_sent'
p380
I00
sS'scrape_downloaded'
p381
I-1
sS'trackerid'
p382
S''
sS'start_sent'
p383
I00
sS'tier'
p384
I3
sS'scrape_complete'
p385
I-1
sS'message'
p386
S''
sS'updating'
p387
I00
sa(dp388
S'send_stats'
p389
I01
sS'fails'
p390
I0
sS'verified'
p391
I00
sS'scrape_incomplete'
p392
I-1
sS'min_announce'
p393
NsS'source'
p394
I4
sS'url'
p395
S'udp://exodus.desync.com:6969'
p396
sS'last_error'
p397
(dp398
S'category'
p399
S'system'
p400
sS'value'
p401
I0
ssS'fail_limit'
p402
I0
sS'next_announce'
p403
NsS'complete_sent'
p404
I00
sS'scrape_downloaded'
p405
I-1
sS'trackerid'
p406
S''
sS'start_sent'
p407
I00
sS'tier'
p408
I4
sS'scrape_complete'
p409
I-1
sS'message'
p410
S''
sS'updating'
p411
I00
sasg152
Nsg153
I00
sg154
F2
sg155
I01
sbasb.